target datalayout = "e-m:e-p270:32:32-p271:32:32-p272:64:64-i64:64-i128:128-f80:128-n8:16:32:64-S128"
target triple = "x86_64-pc-linux-gnu"

@bio_err = external global ptr, align 8
@.str.251 = private unnamed_addr constant [23 x i8] c"../openssl/apps/x509.c\00", align 1
@.str.258 = private unnamed_addr constant [30 x i8] c"No extensions in certificate\0A\00", align 1
@.str.259 = private unnamed_addr constant [29 x i8] c"Invalid extension names: %s\0A\00", align 1
@.str.260 = private unnamed_addr constant [6 x i8] c"UNDEF\00", align 1
@.str.261 = private unnamed_addr constant [31 x i8] c"No extensions matched with %s\0A\00", align 1

; Function Attrs: inlinehint nounwind uwtable
define internal ptr @ossl_check_X509_EXTENSION_type(ptr noundef %0) #3 {
  %2 = alloca ptr, align 8
  store ptr %0, ptr %2, align 8, !tbaa !43
  %3 = load ptr, ptr %2, align 8, !tbaa !43
  ret ptr %3
}

; Function Attrs: inlinehint nounwind uwtable
define internal ptr @ossl_check_X509_EXTENSION_sk_type(ptr noundef %0) #3 {
  %2 = alloca ptr, align 8
  store ptr %0, ptr %2, align 8, !tbaa !57
  %3 = load ptr, ptr %2, align 8, !tbaa !57
  ret ptr %3
}

; Function Attrs: nounwind uwtable
define internal i32 @parse_ext_names(ptr noundef %0, ptr noundef %1) #0 {
  %3 = alloca ptr, align 8
  %4 = alloca ptr, align 8
  %5 = alloca ptr, align 8
  %6 = alloca ptr, align 8
  %7 = alloca i32, align 4
  %8 = alloca i32, align 4
  store ptr %0, ptr %3, align 8, !tbaa !21
  store ptr %1, ptr %4, align 8, !tbaa !8
  call void @llvm.lifetime.start.p0(i64 8, ptr %5) #8
  call void @llvm.lifetime.start.p0(i64 8, ptr %6) #8
  call void @llvm.lifetime.start.p0(i64 4, ptr %7) #8
  store i32 0, ptr %7, align 4, !tbaa !4
  call void @llvm.lifetime.start.p0(i64 4, ptr %8) #8
  store i32 0, ptr %8, align 4, !tbaa !4
  %9 = load ptr, ptr %3, align 8, !tbaa !21
  store ptr %9, ptr %6, align 8, !tbaa !21
  store ptr %9, ptr %5, align 8, !tbaa !21
  %10 = load ptr, ptr %3, align 8, !tbaa !21
  %11 = call i64 @strlen(ptr noundef %10) #9
  %12 = trunc i64 %11 to i32
  store i32 %12, ptr %8, align 4, !tbaa !4
  br label %13

13:                                               ; preds = %52, %32, %2
  %14 = load ptr, ptr %6, align 8, !tbaa !21
  %15 = load ptr, ptr %3, align 8, !tbaa !21
  %16 = ptrtoint ptr %14 to i64
  %17 = ptrtoint ptr %15 to i64
  %18 = sub i64 %16, %17
  %19 = load i32, ptr %8, align 4, !tbaa !4
  %20 = sext i32 %19 to i64
  %21 = icmp sle i64 %18, %20
  br i1 %21, label %22, label %55

22:                                               ; preds = %13
  %23 = load ptr, ptr %6, align 8, !tbaa !21
  %24 = load i8, ptr %23, align 1, !tbaa !52
  %25 = sext i8 %24 to i32
  %26 = icmp ne i32 %25, 44
  br i1 %26, label %27, label %35

27:                                               ; preds = %22
  %28 = load ptr, ptr %6, align 8, !tbaa !21
  %29 = load i8, ptr %28, align 1, !tbaa !52
  %30 = sext i8 %29 to i32
  %31 = icmp ne i32 %30, 0
  br i1 %31, label %32, label %35

32:                                               ; preds = %27
  %33 = load ptr, ptr %6, align 8, !tbaa !21
  %34 = getelementptr inbounds nuw i8, ptr %33, i32 1
  store ptr %34, ptr %6, align 8, !tbaa !21
  br label %13, !llvm.loop !66

35:                                               ; preds = %27, %22
  %36 = load ptr, ptr %5, align 8, !tbaa !21
  %37 = load ptr, ptr %6, align 8, !tbaa !21
  %38 = icmp ne ptr %36, %37
  br i1 %38, label %39, label %52

39:                                               ; preds = %35
  %40 = load ptr, ptr %4, align 8, !tbaa !8
  %41 = icmp ne ptr %40, null
  br i1 %41, label %42, label %49

42:                                               ; preds = %39
  %43 = load ptr, ptr %5, align 8, !tbaa !21
  %44 = load ptr, ptr %4, align 8, !tbaa !8
  %45 = load i32, ptr %7, align 4, !tbaa !4
  %46 = sext i32 %45 to i64
  %47 = getelementptr inbounds ptr, ptr %44, i64 %46
  store ptr %43, ptr %47, align 8, !tbaa !21
  %48 = load ptr, ptr %6, align 8, !tbaa !21
  store i8 0, ptr %48, align 1, !tbaa !52
  br label %49

49:                                               ; preds = %42, %39
  %50 = load i32, ptr %7, align 4, !tbaa !4
  %51 = add nsw i32 %50, 1
  store i32 %51, ptr %7, align 4, !tbaa !4
  br label %52

52:                                               ; preds = %49, %35
  %53 = load ptr, ptr %6, align 8, !tbaa !21
  %54 = getelementptr inbounds nuw i8, ptr %53, i32 1
  store ptr %54, ptr %6, align 8, !tbaa !21
  store ptr %54, ptr %5, align 8, !tbaa !21
  br label %13, !llvm.loop !66

55:                                               ; preds = %13
  %56 = load i32, ptr %7, align 4, !tbaa !4
  call void @llvm.lifetime.end.p0(i64 4, ptr %8) #8
  call void @llvm.lifetime.end.p0(i64 4, ptr %7) #8
  call void @llvm.lifetime.end.p0(i64 8, ptr %6) #8
  call void @llvm.lifetime.end.p0(i64 8, ptr %5) #8
  ret i32 %56
}

; Function Attrs: inlinehint nounwind uwtable
define internal ptr @ossl_check_const_X509_EXTENSION_sk_type(ptr noundef %0) #3 {
  %2 = alloca ptr, align 8
  store ptr %0, ptr %2, align 8, !tbaa !57
  %3 = load ptr, ptr %2, align 8, !tbaa !57
  ret ptr %3
}

; Function Attrs: nounwind uwtable
define internal i32 @print_x509v3_exts(ptr noundef %0, ptr noundef %1, ptr noundef %2) #0 {
  %4 = alloca ptr, align 8
  %5 = alloca ptr, align 8
  %6 = alloca ptr, align 8
  %7 = alloca ptr, align 8
  %8 = alloca ptr, align 8
  %9 = alloca ptr, align 8
  %10 = alloca ptr, align 8
  %11 = alloca i32, align 4
  %12 = alloca i32, align 4
  %13 = alloca i32, align 4
  %14 = alloca i32, align 4
  %15 = alloca i32, align 4
  %16 = alloca ptr, align 8
  %17 = alloca ptr, align 8
  %18 = alloca ptr, align 8
  store ptr %0, ptr %4, align 8, !tbaa !15
  store ptr %1, ptr %5, align 8, !tbaa !31
  store ptr %2, ptr %6, align 8, !tbaa !21
  call void @llvm.lifetime.start.p0(i64 8, ptr %7) #8
  store ptr null, ptr %7, align 8, !tbaa !57
  call void @llvm.lifetime.start.p0(i64 8, ptr %8) #8
  store ptr null, ptr %8, align 8, !tbaa !57
  call void @llvm.lifetime.start.p0(i64 8, ptr %9) #8
  store ptr null, ptr %9, align 8, !tbaa !43
  call void @llvm.lifetime.start.p0(i64 8, ptr %10) #8
  call void @llvm.lifetime.start.p0(i64 4, ptr %11) #8
  call void @llvm.lifetime.start.p0(i64 4, ptr %12) #8
  call void @llvm.lifetime.start.p0(i64 4, ptr %13) #8
  store i32 0, ptr %13, align 4, !tbaa !4
  call void @llvm.lifetime.start.p0(i64 4, ptr %14) #8
  call void @llvm.lifetime.start.p0(i64 4, ptr %15) #8
  store i32 0, ptr %15, align 4, !tbaa !4
  call void @llvm.lifetime.start.p0(i64 8, ptr %16) #8
  call void @llvm.lifetime.start.p0(i64 8, ptr %17) #8
  store ptr null, ptr %17, align 8, !tbaa !8
  call void @llvm.lifetime.start.p0(i64 8, ptr %18) #8
  store ptr null, ptr %18, align 8, !tbaa !21
  %19 = load ptr, ptr %5, align 8, !tbaa !31
  %20 = call ptr @X509_get0_extensions(ptr noundef %19)
  store ptr %20, ptr %7, align 8, !tbaa !57
  %21 = load ptr, ptr %7, align 8, !tbaa !57
  %22 = call ptr @ossl_check_const_X509_EXTENSION_sk_type(ptr noundef %21)
  %23 = call i32 @OPENSSL_sk_num(ptr noundef %22)
  store i32 %23, ptr %14, align 4, !tbaa !4
  %24 = icmp sle i32 %23, 0
  br i1 %24, label %25, label %28

25:                                               ; preds = %3
  %26 = load ptr, ptr @bio_err, align 8, !tbaa !15
  %27 = call i32 (ptr, ptr, ...) @BIO_printf(ptr noundef %26, ptr noundef @.str.258)
  store i32 1, ptr %13, align 4, !tbaa !4
  br label %124

28:                                               ; preds = %3
  %29 = load ptr, ptr %6, align 8, !tbaa !21
  %30 = call noalias ptr @CRYPTO_strdup(ptr noundef %29, ptr noundef @.str.251, i32 noundef 1267)
  store ptr %30, ptr %18, align 8, !tbaa !21
  %31 = icmp eq ptr %30, null
  br i1 %31, label %32, label %33

32:                                               ; preds = %28
  br label %124

33:                                               ; preds = %28
  %34 = load ptr, ptr %18, align 8, !tbaa !21
  %35 = call i32 @parse_ext_names(ptr noundef %34, ptr noundef null)
  store i32 %35, ptr %15, align 4, !tbaa !4
  %36 = icmp eq i32 %35, 0
  br i1 %36, label %37, label %41

37:                                               ; preds = %33
  %38 = load ptr, ptr %4, align 8, !tbaa !15
  %39 = load ptr, ptr %6, align 8, !tbaa !21
  %40 = call i32 (ptr, ptr, ...) @BIO_printf(ptr noundef %38, ptr noundef @.str.259, ptr noundef %39)
  br label %124

41:                                               ; preds = %33
  %42 = load i32, ptr %15, align 4, !tbaa !4
  %43 = sext i32 %42 to i64
  %44 = mul i64 8, %43
  %45 = call noalias ptr @CRYPTO_malloc(i64 noundef %44, ptr noundef @.str.251, i32 noundef 1273)
  store ptr %45, ptr %17, align 8, !tbaa !8
  %46 = icmp eq ptr %45, null
  br i1 %46, label %47, label %48

47:                                               ; preds = %41
  br label %124

48:                                               ; preds = %41
  %49 = load ptr, ptr %18, align 8, !tbaa !21
  %50 = load ptr, ptr %17, align 8, !tbaa !8
  %51 = call i32 @parse_ext_names(ptr noundef %49, ptr noundef %50)
  store i32 0, ptr %11, align 4, !tbaa !4
  br label %52

52:                                               ; preds = %108, %48
  %53 = load i32, ptr %11, align 4, !tbaa !4
  %54 = load i32, ptr %14, align 4, !tbaa !4
  %55 = icmp slt i32 %53, %54
  br i1 %55, label %56, label %111

56:                                               ; preds = %52
  %57 = load ptr, ptr %7, align 8, !tbaa !57
  %58 = call ptr @ossl_check_const_X509_EXTENSION_sk_type(ptr noundef %57)
  %59 = load i32, ptr %11, align 4, !tbaa !4
  %60 = call ptr @OPENSSL_sk_value(ptr noundef %58, i32 noundef %59)
  store ptr %60, ptr %9, align 8, !tbaa !43
  %61 = load ptr, ptr %9, align 8, !tbaa !43
  %62 = call ptr @X509_EXTENSION_get_object(ptr noundef %61)
  store ptr %62, ptr %10, align 8, !tbaa !13
  %63 = load ptr, ptr %10, align 8, !tbaa !13
  %64 = call i32 @OBJ_obj2nid(ptr noundef %63)
  %65 = call ptr @OBJ_nid2sn(i32 noundef %64)
  store ptr %65, ptr %16, align 8, !tbaa !21
  %66 = load ptr, ptr %16, align 8, !tbaa !21
  %67 = icmp eq ptr %66, null
  br i1 %67, label %72, label %68

68:                                               ; preds = %56
  %69 = load ptr, ptr %16, align 8, !tbaa !21
  %70 = call i32 @strcmp(ptr noundef %69, ptr noundef @.str.260) #9
  %71 = icmp eq i32 %70, 0
  br i1 %71, label %72, label %73

72:                                               ; preds = %68, %56
  br label %108

73:                                               ; preds = %68
  store i32 0, ptr %12, align 4, !tbaa !4
  br label %74

74:                                               ; preds = %104, %73
  %75 = load i32, ptr %12, align 4, !tbaa !4
  %76 = load i32, ptr %15, align 4, !tbaa !4
  %77 = icmp slt i32 %75, %76
  br i1 %77, label %78, label %107

78:                                               ; preds = %74
  %79 = load ptr, ptr %16, align 8, !tbaa !21
  %80 = load ptr, ptr %17, align 8, !tbaa !8
  %81 = load i32, ptr %12, align 4, !tbaa !4
  %82 = sext i32 %81 to i64
  %83 = getelementptr inbounds ptr, ptr %80, i64 %82
  %84 = load ptr, ptr %83, align 8, !tbaa !21
  %85 = call i32 @strcmp(ptr noundef %79, ptr noundef %84) #9
  %86 = icmp eq i32 %85, 0
  br i1 %86, label %87, label %103

87:                                               ; preds = %78
  %88 = load ptr, ptr %8, align 8, !tbaa !57
  %89 = icmp eq ptr %88, null
  br i1 %89, label %90, label %94

90:                                               ; preds = %87
  %91 = call ptr @OPENSSL_sk_new_null()
  store ptr %91, ptr %8, align 8, !tbaa !57
  %92 = icmp eq ptr %91, null
  br i1 %92, label %93, label %94

93:                                               ; preds = %90
  br label %124

94:                                               ; preds = %90, %87
  %95 = load ptr, ptr %8, align 8, !tbaa !57
  %96 = call ptr @ossl_check_X509_EXTENSION_sk_type(ptr noundef %95)
  %97 = load ptr, ptr %9, align 8, !tbaa !43
  %98 = call ptr @ossl_check_X509_EXTENSION_type(ptr noundef %97)
  %99 = call i32 @OPENSSL_sk_push(ptr noundef %96, ptr noundef %98)
  %100 = icmp ne i32 %99, 0
  br i1 %100, label %102, label %101

101:                                              ; preds = %94
  br label %124

102:                                              ; preds = %94
  br label %103

103:                                              ; preds = %102, %78
  br label %104

104:                                              ; preds = %103
  %105 = load i32, ptr %12, align 4, !tbaa !4
  %106 = add nsw i32 %105, 1
  store i32 %106, ptr %12, align 4, !tbaa !4
  br label %74, !llvm.loop !63

107:                                              ; preds = %74
  br label %108

108:                                              ; preds = %107, %72
  %109 = load i32, ptr %11, align 4, !tbaa !4
  %110 = add nsw i32 %109, 1
  store i32 %110, ptr %11, align 4, !tbaa !4
  br label %52, !llvm.loop !64

111:                                              ; preds = %52
  %112 = load ptr, ptr %8, align 8, !tbaa !57
  %113 = call ptr @ossl_check_const_X509_EXTENSION_sk_type(ptr noundef %112)
  %114 = call i32 @OPENSSL_sk_num(ptr noundef %113)
  %115 = icmp ne i32 %114, 0
  br i1 %115, label %120, label %116

116:                                              ; preds = %111
  %117 = load ptr, ptr %4, align 8, !tbaa !15
  %118 = load ptr, ptr %6, align 8, !tbaa !21
  %119 = call i32 (ptr, ptr, ...) @BIO_printf(ptr noundef %117, ptr noundef @.str.261, ptr noundef %118)
  store i32 1, ptr %13, align 4, !tbaa !4
  br label %124

120:                                              ; preds = %111
  %121 = load ptr, ptr %4, align 8, !tbaa !15
  %122 = load ptr, ptr %8, align 8, !tbaa !57
  %123 = call i32 @X509V3_extensions_print(ptr noundef %121, ptr noundef null, ptr noundef %122, i64 noundef 0, i32 noundef 0)
  store i32 %123, ptr %13, align 4, !tbaa !4
  br label %124

124:                                              ; preds = %120, %116, %101, %93, %47, %37, %32, %25
  %125 = load ptr, ptr %8, align 8, !tbaa !57
  %126 = call ptr @ossl_check_X509_EXTENSION_sk_type(ptr noundef %125)
  call void @OPENSSL_sk_free(ptr noundef %126)
  %127 = load ptr, ptr %17, align 8, !tbaa !8
  call void @CRYPTO_free(ptr noundef %127, ptr noundef @.str.251, i32 noundef 1307)
  %128 = load ptr, ptr %18, align 8, !tbaa !21
  call void @CRYPTO_free(ptr noundef %128, ptr noundef @.str.251, i32 noundef 1308)
  %129 = load i32, ptr %13, align 4, !tbaa !4
  call void @llvm.lifetime.end.p0(i64 8, ptr %18) #8
  call void @llvm.lifetime.end.p0(i64 8, ptr %17) #8
  call void @llvm.lifetime.end.p0(i64 8, ptr %16) #8
  call void @llvm.lifetime.end.p0(i64 4, ptr %15) #8
  call void @llvm.lifetime.end.p0(i64 4, ptr %14) #8
  call void @llvm.lifetime.end.p0(i64 4, ptr %13) #8
  call void @llvm.lifetime.end.p0(i64 4, ptr %12) #8
  call void @llvm.lifetime.end.p0(i64 4, ptr %11) #8
  call void @llvm.lifetime.end.p0(i64 8, ptr %10) #8
  call void @llvm.lifetime.end.p0(i64 8, ptr %9) #8
  call void @llvm.lifetime.end.p0(i64 8, ptr %8) #8
  call void @llvm.lifetime.end.p0(i64 8, ptr %7) #8
  ret i32 %129
}