; Function Attrs: nounwind uwtable
define internal fastcc void @print_x509v3_exts(ptr noundef nonnull %0, ptr noundef nonnull %1, ptr noundef %2) unnamed_addr #0 {
  %4 = tail call ptr @X509_get0_extensions(ptr noundef nonnull %1) #8
  %5 = tail call i32 @OPENSSL_sk_num(ptr noundef %4) #8
  %6 = icmp slt i32 %5, 1
  br i1 %6, label %7, label %10

7:                                                ; preds = %3
  %8 = load ptr, ptr @bio_err, align 8, !tbaa !13
  %9 = tail call i32 (ptr, ptr, ...) @BIO_printf(ptr noundef %8, ptr noundef nonnull @.str.258) #8
  br label %.loopexit65

10:                                               ; preds = %3
  %11 = tail call noalias ptr @CRYPTO_strdup(ptr noundef %2, ptr noundef nonnull @.str.251, i32 noundef 1267) #8
  %12 = icmp eq ptr %11, null
  br i1 %12, label %.loopexit65, label %13

13:                                               ; preds = %10
  %14 = tail call i64 @strlen(ptr noundef nonnull dereferenceable(1) %11) #9
  %15 = ptrtoint ptr %11 to i64
  %sext.i = shl i64 %14, 32
  %16 = ashr exact i64 %sext.i, 32
  %.not2730.i = icmp slt i64 %16, 0
  br i1 %.not2730.i, label %parse_ext_names.exit.thread, label %.lr.ph.us.i

.lr.ph.us.i:                                      ; preds = %13, %.outer.us.i
  %.0.ph33.us.i = phi i32 [ %spec.select.i, %.outer.us.i ], [ 0, %13 ]
  %.017.ph32.us.i = phi ptr [ %20, %.outer.us.i ], [ %11, %13 ]
  br label %17

17:                                               ; preds = %23, %.lr.ph.us.i
  %.01728.us.i = phi ptr [ %.017.ph32.us.i, %.lr.ph.us.i ], [ %24, %23 ]
  %18 = load i8, ptr %.01728.us.i, align 1, !tbaa !26
  switch i8 %18, label %23 [
    i8 44, label %.outer.us.i
    i8 0, label %.outer.us.i
  ]

.outer.us.i:                                      ; preds = %17, %17
  %.not23.us.i = icmp ne ptr %.017.ph32.us.i, %.01728.us.i
  %19 = zext i1 %.not23.us.i to i32
  %spec.select.i = add nuw nsw i32 %.0.ph33.us.i, %19
  %20 = getelementptr inbounds nuw i8, ptr %.01728.us.i, i64 1
  %21 = ptrtoint ptr %20 to i64
  %22 = sub i64 %21, %15
  %.not27.us.i = icmp sgt i64 %22, %16
  br i1 %.not27.us.i, label %parse_ext_names.exit, label %.lr.ph.us.i, !llvm.loop !31

23:                                               ; preds = %17
  %24 = getelementptr inbounds nuw i8, ptr %.01728.us.i, i64 1
  %25 = ptrtoint ptr %24 to i64
  %26 = sub i64 %25, %15
  %.not.us.i = icmp sgt i64 %26, %16
  br i1 %.not.us.i, label %parse_ext_names.exit, label %17, !llvm.loop !31

parse_ext_names.exit:                             ; preds = %.outer.us.i, %23
  %.0.ph.lcssa.i = phi i32 [ %.0.ph33.us.i, %23 ], [ %spec.select.i, %.outer.us.i ]
  %.0.ph.lcssa.i.fr = freeze i32 %.0.ph.lcssa.i
  %27 = icmp eq i32 %.0.ph.lcssa.i.fr, 0
  br i1 %27, label %parse_ext_names.exit.thread, label %29

parse_ext_names.exit.thread:                      ; preds = %13, %parse_ext_names.exit
  %28 = tail call i32 (ptr, ptr, ...) @BIO_printf(ptr noundef nonnull %0, ptr noundef nonnull @.str.259, ptr noundef %2) #8
  br label %.loopexit65

29:                                               ; preds = %parse_ext_names.exit
  %30 = sext i32 %.0.ph.lcssa.i.fr to i64
  %31 = shl nsw i64 %30, 3
  %32 = tail call noalias ptr @CRYPTO_malloc(i64 noundef %31, ptr noundef nonnull @.str.251, i32 noundef 1273) #8
  %33 = icmp eq ptr %32, null
  br i1 %33, label %.loopexit65, label %34

34:                                               ; preds = %29
  %35 = tail call i64 @strlen(ptr noundef nonnull dereferenceable(1) %11) #9
  %sext.i50 = shl i64 %35, 32
  %36 = ashr exact i64 %sext.i50, 32
  %.not2730.i51 = icmp slt i64 %36, 0
  br i1 %.not2730.i51, label %.lr.ph77, label %.lr.ph.i

.lr.ph.i:                                         ; preds = %34, %.outer.i
  %.0.ph33.i = phi i32 [ %.1.i, %.outer.i ], [ 0, %34 ]
  %.017.ph32.i = phi ptr [ %48, %.outer.i ], [ %11, %34 ]
  br label %37

37:                                               ; preds = %39, %.lr.ph.i
  %.01728.i = phi ptr [ %.017.ph32.i, %.lr.ph.i ], [ %40, %39 ]
  %38 = load i8, ptr %.01728.i, align 1, !tbaa !26
  switch i8 %38, label %39 [
    i8 44, label %43
    i8 0, label %43
  ]

39:                                               ; preds = %37
  %40 = getelementptr inbounds nuw i8, ptr %.01728.i, i64 1
  %41 = ptrtoint ptr %40 to i64
  %42 = sub i64 %41, %15
  %.not.i = icmp sgt i64 %42, %36
  br i1 %.not.i, label %.lr.ph77, label %37, !llvm.loop !31

43:                                               ; preds = %37, %37
  %.not23.i = icmp eq ptr %.017.ph32.i, %.01728.i
  br i1 %.not23.i, label %.outer.i, label %44

44:                                               ; preds = %43
  %45 = sext i32 %.0.ph33.i to i64
  %46 = getelementptr inbounds ptr, ptr %32, i64 %45
  store ptr %.017.ph32.i, ptr %46, align 8, !tbaa !8
  store i8 0, ptr %.01728.i, align 1, !tbaa !26
  %47 = add nsw i32 %.0.ph33.i, 1
  br label %.outer.i

.outer.i:                                         ; preds = %44, %43
  %.1.i = phi i32 [ %47, %44 ], [ %.0.ph33.i, %43 ]
  %48 = getelementptr inbounds nuw i8, ptr %.01728.i, i64 1
  %49 = ptrtoint ptr %48 to i64
  %50 = sub i64 %49, %15
  %.not27.i = icmp sgt i64 %50, %36
  br i1 %.not27.i, label %.lr.ph77, label %.lr.ph.i, !llvm.loop !31

.lr.ph77:                                         ; preds = %.outer.i, %39, %34
  %51 = icmp sgt i32 %.0.ph.lcssa.i.fr, 0
  %smax88 = tail call i32 @llvm.smax.i32(i32 %5, i32 1)
  br i1 %51, label %.lr.ph77.split.us.preheader, label %.lr.ph77.split

.lr.ph77.split.us.preheader:                      ; preds = %.lr.ph77
  %wide.trip.count = zext nneg i32 %.0.ph.lcssa.i.fr to i64
  br label %.lr.ph77.split.us

.lr.ph77.split.us:                                ; preds = %.lr.ph77.split.us.preheader, %..loopexit_crit_edge.us
  %.176.us = phi ptr [ %.2.us, %..loopexit_crit_edge.us ], [ null, %.lr.ph77.split.us.preheader ]
  %.03975.us = phi i32 [ %72, %..loopexit_crit_edge.us ], [ 0, %.lr.ph77.split.us.preheader ]
  %52 = tail call ptr @OPENSSL_sk_value(ptr noundef %4, i32 noundef %.03975.us) #8
  %53 = tail call ptr @X509_EXTENSION_get_object(ptr noundef %52) #8
  %54 = tail call i32 @OBJ_obj2nid(ptr noundef %53) #8
  %55 = tail call ptr @OBJ_nid2sn(i32 noundef %54) #8
  %56 = icmp eq ptr %55, null
  br i1 %56, label %..loopexit_crit_edge.us, label %57

57:                                               ; preds = %.lr.ph77.split.us
  %58 = tail call i32 @strcmp(ptr noundef nonnull dereferenceable(1) %55, ptr noundef nonnull dereferenceable(6) @.str.260) #9
  %59 = icmp eq i32 %58, 0
  br i1 %59, label %..loopexit_crit_edge.us, label %.preheader.us

.preheader.us:                                    ; preds = %57, %71
  %indvars.iv = phi i64 [ %indvars.iv.next, %71 ], [ 0, %57 ]
  %.374.us = phi ptr [ %.5.us, %71 ], [ %.176.us, %57 ]
  %60 = getelementptr inbounds nuw ptr, ptr %32, i64 %indvars.iv
  %61 = load ptr, ptr %60, align 8, !tbaa !8
  %62 = tail call i32 @strcmp(ptr noundef nonnull dereferenceable(1) %55, ptr noundef nonnull dereferenceable(1) %61) #9
  %63 = icmp eq i32 %62, 0
  br i1 %63, label %64, label %71

64:                                               ; preds = %.preheader.us
  %65 = icmp eq ptr %.374.us, null
  br i1 %65, label %66, label %69

66:                                               ; preds = %64
  %67 = tail call ptr @OPENSSL_sk_new_null() #8
  %68 = icmp eq ptr %67, null
  br i1 %68, label %.loopexit65, label %69

69:                                               ; preds = %66, %64
  %.4.us = phi ptr [ %67, %66 ], [ %.374.us, %64 ]
  %70 = tail call i32 @OPENSSL_sk_push(ptr noundef nonnull %.4.us, ptr noundef %52) #8
  %.not49.us = icmp eq i32 %70, 0
  br i1 %.not49.us, label %.loopexit65, label %71

71:                                               ; preds = %69, %.preheader.us
  %.5.us = phi ptr [ %.4.us, %69 ], [ %.374.us, %.preheader.us ]
  %indvars.iv.next = add nuw nsw i64 %indvars.iv, 1
  %exitcond87.not = icmp eq i64 %indvars.iv.next, %wide.trip.count
  br i1 %exitcond87.not, label %..loopexit_crit_edge.us, label %.preheader.us, !llvm.loop !32

..loopexit_crit_edge.us:                          ; preds = %71, %57, %.lr.ph77.split.us
  %.2.us = phi ptr [ %.176.us, %.lr.ph77.split.us ], [ %.176.us, %57 ], [ %.5.us, %71 ]
  %72 = add nuw nsw i32 %.03975.us, 1
  %exitcond89.not = icmp eq i32 %72, %smax88
  br i1 %exitcond89.not, label %._crit_edge, label %.lr.ph77.split.us, !llvm.loop !33

.lr.ph77.split:                                   ; preds = %.lr.ph77, %.lr.ph77.split
  %.03975 = phi i32 [ %77, %.lr.ph77.split ], [ 0, %.lr.ph77 ]
  %73 = tail call ptr @OPENSSL_sk_value(ptr noundef %4, i32 noundef %.03975) #8
  %74 = tail call ptr @X509_EXTENSION_get_object(ptr noundef %73) #8
  %75 = tail call i32 @OBJ_obj2nid(ptr noundef %74) #8
  %76 = tail call ptr @OBJ_nid2sn(i32 noundef %75) #8
  %77 = add nuw nsw i32 %.03975, 1
  %exitcond.not = icmp eq i32 %77, %smax88
  br i1 %exitcond.not, label %._crit_edge, label %.lr.ph77.split, !llvm.loop !33

._crit_edge:                                      ; preds = %.lr.ph77.split, %..loopexit_crit_edge.us
  %.1.lcssa = phi ptr [ %.2.us, %..loopexit_crit_edge.us ], [ null, %.lr.ph77.split ]
  %78 = tail call i32 @OPENSSL_sk_num(ptr noundef %.1.lcssa) #8
  %.not = icmp eq i32 %78, 0
  br i1 %.not, label %79, label %81

79:                                               ; preds = %._crit_edge
  %80 = tail call i32 (ptr, ptr, ...) @BIO_printf(ptr noundef nonnull %0, ptr noundef nonnull @.str.261, ptr noundef %2) #8
  br label %.loopexit65

81:                                               ; preds = %._crit_edge
  %82 = tail call i32 @X509V3_extensions_print(ptr noundef nonnull %0, ptr noundef null, ptr noundef %.1.lcssa, i64 noundef 0, i32 noundef 0) #8
  br label %.loopexit65

.loopexit65:                                      ; preds = %69, %66, %29, %10, %81, %79, %parse_ext_names.exit.thread, %7
  %.036 = phi ptr [ null, %7 ], [ null, %10 ], [ null, %parse_ext_names.exit.thread ], [ null, %29 ], [ %.1.lcssa, %81 ], [ %.1.lcssa, %79 ], [ null, %66 ], [ %.4.us, %69 ]
  %.035 = phi ptr [ null, %7 ], [ null, %10 ], [ null, %parse_ext_names.exit.thread ], [ null, %29 ], [ %32, %81 ], [ %32, %79 ], [ %32, %66 ], [ %32, %69 ]
  %.0 = phi ptr [ null, %7 ], [ null, %10 ], [ %11, %parse_ext_names.exit.thread ], [ %11, %29 ], [ %11, %81 ], [ %11, %79 ], [ %11, %66 ], [ %11, %69 ]
  tail call void @OPENSSL_sk_free(ptr noundef %.036) #8
  tail call void @CRYPTO_free(ptr noundef %.035, ptr noundef nonnull @.str.251, i32 noundef 1307) #8
  tail call void @CRYPTO_free(ptr noundef %.0, ptr noundef nonnull @.str.251, i32 noundef 1308) #8
  ret void
}